target datalayout = "e-m:e-p270:32:32-p271:32:32-p272:64:64-i64:64-i128:128-f80:128-n8:16:32:64-S128"
target triple = "x86_64-pc-linux-gnu"

%class.rational = type { %class.mpq }
%class.mpq = type { %class.mpz, %class.mpz }
%class.mpz = type { i32, i8, ptr }
%class.region = type { ptr, ptr, ptr, ptr, ptr }
%class.old_interval = type { ptr, %class.ext_numeral, %class.ext_numeral, i8, i8, ptr, ptr }
%class.ext_numeral = type { i32, %class.rational }
%class.vector.63 = type { ptr }
%"class.datalog::relation_signature" = type { %"class.datalog::tr_infrastructure<datalog::relation_traits>::signature_base" }
%"class.datalog::tr_infrastructure<datalog::relation_traits>::signature_base" = type { %class.ptr_vector.62 }
%class.ptr_vector.62 = type { %class.vector.63 }
%class.svector.50 = type { %class.vector.51 }
%class.vector.51 = type { ptr }
%"class.datalog::vector_relation" = type { %"class.datalog::relation_base.base", %class.old_interval, ptr, i8, %class.union_find_default_ctx, ptr }
%"class.datalog::relation_base.base" = type { %"class.datalog::tr_infrastructure<datalog::relation_traits>::base_ancestor.base" }
%"class.datalog::tr_infrastructure<datalog::relation_traits>::base_ancestor.base" = type <{ ptr, ptr, %"class.datalog::relation_signature", i32 }>
%class.union_find_default_ctx = type { %class.trail_stack }
%class.trail_stack = type { %class.ptr_vector.64, %class.svector.50, %class.region }
%class.ptr_vector.64 = type { %class.vector.65 }
%class.vector.65 = type { ptr }
%class.trail = type { ptr }
%class.union_find = type { ptr, ptr, %class.svector.50, %class.svector.50, %class.svector.50, %"class.union_find<>::mk_var_trail" }
%"class.union_find<>::mk_var_trail" = type { %class.trail, ptr }
%class.vector.75 = type { ptr }

@_ZN8rational13g_mpq_managerE = external global ptr, align 8

; Function Attrs: mustprogress uwtable
define linkonce_odr hidden void @_ZN11mpq_managerILb1EE3delEPS0_R3mpq(ptr noundef %0, ptr noundef nonnull align 8 dereferenceable(32) %1) #4 comdat align 2 {
  %3 = alloca ptr, align 8
  %4 = alloca ptr, align 8
  store ptr %0, ptr %3, align 8, !tbaa !147
  store ptr %1, ptr %4, align 8, !tbaa !380
  %5 = load ptr, ptr %3, align 8, !tbaa !147
  %6 = load ptr, ptr %4, align 8, !tbaa !380
  %7 = getelementptr inbounds nuw %class.mpq, ptr %6, i32 0, i32 0
  call void @_ZN11mpz_managerILb1EE3delEPS0_R3mpz(ptr noundef %5, ptr noundef nonnull align 8 dereferenceable(16) %7)
  %8 = load ptr, ptr %3, align 8, !tbaa !147
  %9 = load ptr, ptr %4, align 8, !tbaa !380
  %10 = getelementptr inbounds nuw %class.mpq, ptr %9, i32 0, i32 1
  call void @_ZN11mpz_managerILb1EE3delEPS0_R3mpz(ptr noundef %8, ptr noundef nonnull align 8 dereferenceable(16) %10)
  ret void
}

; Function Attrs: mustprogress nounwind uwtable
define linkonce_odr hidden noundef nonnull align 4 dereferenceable(4) ptr @_ZNK6vectorIjLb0EjEixEj(ptr noundef nonnull align 8 dereferenceable(8) %0, i32 noundef %1) #7 comdat align 2 {
  %3 = alloca ptr, align 8
  %4 = alloca i32, align 4
  store ptr %0, ptr %3, align 8, !tbaa !287
  store i32 %1, ptr %4, align 4, !tbaa !33
  %5 = load ptr, ptr %3, align 8
  %6 = getelementptr inbounds nuw %class.vector.51, ptr %5, i32 0, i32 0
  %7 = load ptr, ptr %6, align 8, !tbaa !295
  %8 = load i32, ptr %4, align 4, !tbaa !33
  %9 = zext i32 %8 to i64
  %10 = getelementptr inbounds nuw i32, ptr %7, i64 %9
  ret ptr %10
}

; Function Attrs: mustprogress nounwind uwtable
define linkonce_odr hidden void @_ZN8rationalD2Ev(ptr noundef nonnull align 8 dereferenceable(32) %0) unnamed_addr #7 comdat align 2 personality ptr @__gxx_personality_v0 {
  %2 = alloca ptr, align 8
  store ptr %0, ptr %2, align 8, !tbaa !143
  %3 = load ptr, ptr %2, align 8
  %4 = load ptr, ptr @_ZN8rational13g_mpq_managerE, align 8, !tbaa !147
  %5 = getelementptr inbounds nuw %class.rational, ptr %3, i32 0, i32 0
  invoke void @_ZN11mpq_managerILb1EE3delEPS0_R3mpq(ptr noundef %4, ptr noundef nonnull align 8 dereferenceable(32) %5)
          to label %6 unwind label %7

6:                                                ; preds = %1
  ret void

7:                                                ; preds = %1
  %8 = landingpad { ptr, i32 }
          catch ptr null
  %9 = extractvalue { ptr, i32 } %8, 0
  call void @__clang_call_terminate(ptr %9) #22
  unreachable
}

; Function Attrs: mustprogress uwtable
define linkonce_odr hidden noundef i32 @_ZNK10union_findI22union_find_default_ctxE4findEj(ptr noundef nonnull align 8 dereferenceable(56) %0, i32 noundef %1) #4 comdat align 2 {
  %3 = alloca i32, align 4
  %4 = alloca ptr, align 8
  %5 = alloca i32, align 4
  %6 = alloca i32, align 4
  %7 = alloca i32, align 4
  store ptr %0, ptr %4, align 8, !tbaa !138
  store i32 %1, ptr %5, align 4, !tbaa !33
  %8 = load ptr, ptr %4, align 8
  br label %9

9:                                                ; preds = %2, %23
  call void @llvm.lifetime.start.p0(i64 4, ptr %6) #3
  %10 = getelementptr inbounds nuw %class.union_find, ptr %8, i32 0, i32 2
  %11 = load i32, ptr %5, align 4, !tbaa !33
  %12 = call noundef nonnull align 4 dereferenceable(4) ptr @_ZNK6vectorIjLb0EjEixEj(ptr noundef nonnull align 8 dereferenceable(8) %10, i32 noundef %11)
  %13 = load i32, ptr %12, align 4, !tbaa !33
  store i32 %13, ptr %6, align 4, !tbaa !33
  %14 = load i32, ptr %6, align 4, !tbaa !33
  %15 = load i32, ptr %5, align 4, !tbaa !33
  %16 = icmp eq i32 %14, %15
  br i1 %16, label %17, label %19

17:                                               ; preds = %9
  %18 = load i32, ptr %5, align 4, !tbaa !33
  store i32 %18, ptr %3, align 4
  store i32 1, ptr %7, align 4
  br label %21

19:                                               ; preds = %9
  %20 = load i32, ptr %6, align 4, !tbaa !33
  store i32 %20, ptr %5, align 4, !tbaa !33
  store i32 0, ptr %7, align 4
  br label %21

21:                                               ; preds = %19, %17
  call void @llvm.lifetime.end.p0(i64 4, ptr %6) #3
  %22 = load i32, ptr %7, align 4
  switch i32 %22, label %26 [
    i32 0, label %23
    i32 1, label %24
  ]

23:                                               ; preds = %21
  br label %9, !llvm.loop !337

24:                                               ; preds = %21
  %25 = load i32, ptr %3, align 4
  ret i32 %25

26:                                               ; preds = %21
  unreachable
}

; Function Attrs: inlinehint mustprogress nounwind uwtable
define linkonce_odr hidden void @_ZN11ext_numeralD2Ev(ptr noundef nonnull align 8 dereferenceable(40) %0) unnamed_addr #6 comdat align 2 {
  %2 = alloca ptr, align 8
  store ptr %0, ptr %2, align 8, !tbaa !74
  %3 = load ptr, ptr %2, align 8
  %4 = getelementptr inbounds nuw %class.ext_numeral, ptr %3, i32 0, i32 1
  call void @_ZN8rationalD2Ev(ptr noundef nonnull align 8 dereferenceable(32) %4) #3
  ret void
}

; Function Attrs: mustprogress nounwind uwtable
define linkonce_odr hidden noundef nonnull align 8 dereferenceable(112) ptr @_ZN6vectorI12old_intervalLb1EjEixEj(ptr noundef nonnull align 8 dereferenceable(8) %0, i32 noundef %1) #7 comdat align 2 {
  %3 = alloca ptr, align 8
  %4 = alloca i32, align 4
  store ptr %0, ptr %3, align 8, !tbaa !140
  store i32 %1, ptr %4, align 4, !tbaa !33
  %5 = load ptr, ptr %3, align 8
  %6 = getelementptr inbounds nuw %class.vector.75, ptr %5, i32 0, i32 0
  %7 = load ptr, ptr %6, align 8, !tbaa !378
  %8 = load i32, ptr %4, align 4, !tbaa !33
  %9 = zext i32 %8 to i64
  %10 = getelementptr inbounds nuw %class.old_interval, ptr %7, i64 %9
  ret ptr %10
}

; Function Attrs: mustprogress uwtable
define linkonce_odr hidden noundef i32 @_ZNK7datalog15vector_relationI12old_intervalNS_22vector_relation_helperIS1_EEE4findEj(ptr noundef nonnull align 8 dereferenceable(224) %0, i32 noundef %1) #4 comdat align 2 {
  %3 = alloca ptr, align 8
  %4 = alloca i32, align 4
  store ptr %0, ptr %3, align 8, !tbaa !101
  store i32 %1, ptr %4, align 4, !tbaa !33
  %5 = load ptr, ptr %3, align 8
  %6 = getelementptr inbounds nuw %"class.datalog::vector_relation", ptr %5, i32 0, i32 5
  %7 = load ptr, ptr %6, align 8, !tbaa !122
  %8 = load i32, ptr %4, align 4, !tbaa !33
  %9 = call noundef i32 @_ZNK10union_findI22union_find_default_ctxE4findEj(ptr noundef nonnull align 8 dereferenceable(56) %7, i32 noundef %8)
  ret i32 %9
}

; Function Attrs: inlinehint mustprogress nounwind uwtable
define linkonce_odr hidden void @_ZN12old_intervalD2Ev(ptr noundef nonnull align 8 dereferenceable(112) %0) unnamed_addr #6 comdat align 2 {
  %2 = alloca ptr, align 8
  store ptr %0, ptr %2, align 8, !tbaa !29
  %3 = load ptr, ptr %2, align 8
  %4 = getelementptr inbounds nuw %class.old_interval, ptr %3, i32 0, i32 2
  call void @_ZN11ext_numeralD2Ev(ptr noundef nonnull align 8 dereferenceable(40) %4) #3
  %5 = getelementptr inbounds nuw %class.old_interval, ptr %3, i32 0, i32 1
  call void @_ZN11ext_numeralD2Ev(ptr noundef nonnull align 8 dereferenceable(40) %5) #3
  ret void
}

; Function Attrs: mustprogress uwtable
define linkonce_odr hidden noundef nonnull align 8 dereferenceable(112) ptr @_ZN7datalog15vector_relationI12old_intervalNS_22vector_relation_helperIS1_EEEixEj(ptr noundef nonnull align 8 dereferenceable(224) %0, i32 noundef %1) #4 comdat align 2 {
  %3 = alloca ptr, align 8
  %4 = alloca i32, align 4
  store ptr %0, ptr %3, align 8, !tbaa !101
  store i32 %1, ptr %4, align 4, !tbaa !33
  %5 = load ptr, ptr %3, align 8
  %6 = getelementptr inbounds nuw %"class.datalog::vector_relation", ptr %5, i32 0, i32 2
  %7 = load ptr, ptr %6, align 8, !tbaa !103
  %8 = load i32, ptr %4, align 4, !tbaa !33
  %9 = call noundef i32 @_ZNK7datalog15vector_relationI12old_intervalNS_22vector_relation_helperIS1_EEE4findEj(ptr noundef nonnull align 8 dereferenceable(224) %5, i32 noundef %8)
  %10 = call noundef nonnull align 8 dereferenceable(112) ptr @_ZN6vectorI12old_intervalLb1EjEixEj(ptr noundef nonnull align 8 dereferenceable(8) %7, i32 noundef %9)
  ret ptr %10
}

; Function Attrs: mustprogress uwtable
define hidden void @_ZN7datalog17interval_relation12mk_intersectEjRK12old_interval(ptr noundef nonnull align 8 dereferenceable(224) %0, i32 noundef %1, ptr noundef nonnull align 8 dereferenceable(112) %2) #4 align 2 personality ptr @__gxx_personality_v0 {
  %4 = alloca ptr, align 8
  %5 = alloca i32, align 4
  %6 = alloca ptr, align 8
  %7 = alloca i8, align 1
  %8 = alloca %class.old_interval, align 8
  %9 = alloca ptr, align 8
  %10 = alloca i32, align 4
  store ptr %0, ptr %4, align 8, !tbaa !99
  store i32 %1, ptr %5, align 4, !tbaa !33
  store ptr %2, ptr %6, align 8, !tbaa !29
  %11 = load ptr, ptr %4, align 8
  call void @llvm.lifetime.start.p0(i64 1, ptr %7) #3
  call void @llvm.lifetime.start.p0(i64 112, ptr %8) #3
  %12 = load i32, ptr %5, align 4, !tbaa !33
  %13 = call noundef nonnull align 8 dereferenceable(112) ptr @_ZN7datalog15vector_relationI12old_intervalNS_22vector_relation_helperIS1_EEEixEj(ptr noundef nonnull align 8 dereferenceable(224) %11, i32 noundef %12)
  %14 = load ptr, ptr %6, align 8, !tbaa !29
  %15 = load ptr, ptr %11, align 8, !tbaa !10
  %16 = getelementptr inbounds ptr, ptr %15, i64 21
  %17 = load ptr, ptr %16, align 8
  call void %17(ptr dead_on_unwind writable sret(%class.old_interval) align 8 %8, ptr noundef nonnull align 8 dereferenceable(224) %11, ptr noundef nonnull align 8 dereferenceable(112) %13, ptr noundef nonnull align 8 dereferenceable(112) %14, ptr noundef nonnull align 1 dereferenceable(1) %7)
  %18 = load i32, ptr %5, align 4, !tbaa !33
  %19 = invoke noundef nonnull align 8 dereferenceable(112) ptr @_ZN7datalog15vector_relationI12old_intervalNS_22vector_relation_helperIS1_EEEixEj(ptr noundef nonnull align 8 dereferenceable(224) %11, i32 noundef %18)
          to label %20 unwind label %33

20:                                               ; preds = %3
  %21 = call noundef nonnull align 8 dereferenceable(112) ptr @_ZN12old_intervalaSEOS_(ptr noundef nonnull align 8 dereferenceable(112) %19, ptr noundef nonnull align 8 dereferenceable(112) %8) #3
  call void @_ZN12old_intervalD2Ev(ptr noundef nonnull align 8 dereferenceable(112) %8) #3
  call void @llvm.lifetime.end.p0(i64 112, ptr %8) #3
  %22 = load i8, ptr %7, align 1, !tbaa !60, !range !62, !noundef !63
  %23 = trunc i8 %22 to i1
  br i1 %23, label %32, label %24

24:                                               ; preds = %20
  %25 = load i32, ptr %5, align 4, !tbaa !33
  %26 = load i32, ptr %5, align 4, !tbaa !33
  %27 = call noundef nonnull align 8 dereferenceable(112) ptr @_ZN7datalog15vector_relationI12old_intervalNS_22vector_relation_helperIS1_EEEixEj(ptr noundef nonnull align 8 dereferenceable(224) %11, i32 noundef %26)
  %28 = load ptr, ptr %11, align 8, !tbaa !10
  %29 = getelementptr inbounds ptr, ptr %28, i64 26
  %30 = load ptr, ptr %29, align 8
  %31 = call noundef zeroext i1 %30(ptr noundef nonnull align 8 dereferenceable(224) %11, i32 noundef %25, ptr noundef nonnull align 8 dereferenceable(112) %27)
  br i1 %31, label %32, label %37

32:                                               ; preds = %24, %20
  call void @_ZN7datalog15vector_relationI12old_intervalNS_22vector_relation_helperIS1_EEE9set_emptyEv(ptr noundef nonnull align 8 dereferenceable(224) %11)
  br label %37

33:                                               ; preds = %3
  %34 = landingpad { ptr, i32 }
          cleanup
  %35 = extractvalue { ptr, i32 } %34, 0
  store ptr %35, ptr %9, align 8
  %36 = extractvalue { ptr, i32 } %34, 1
  store i32 %36, ptr %10, align 4
  call void @_ZN12old_intervalD2Ev(ptr noundef nonnull align 8 dereferenceable(112) %8) #3
  call void @llvm.lifetime.end.p0(i64 112, ptr %8) #3
  call void @llvm.lifetime.end.p0(i64 1, ptr %7) #3
  br label %38

37:                                               ; preds = %32, %24
  call void @llvm.lifetime.end.p0(i64 1, ptr %7) #3
  ret void

38:                                               ; preds = %33
  %39 = load ptr, ptr %9, align 8
  %40 = load i32, ptr %10, align 4
  %41 = insertvalue { ptr, i32 } poison, ptr %39, 0
  %42 = insertvalue { ptr, i32 } %41, i32 %40, 1
  resume { ptr, i32 } %42
}