; Function Attrs: mustprogress uwtable
define hidden void @_ZN7datalog17interval_relation12mk_intersectEjRK12old_interval(ptr noundef nonnull align 8 dereferenceable(224) %0, i32 noundef %1, ptr noundef nonnull align 8 dereferenceable(112) %2) local_unnamed_addr #3 align 2 personality ptr @__gxx_personality_v0 {
  %4 = alloca i8, align 1
  %5 = alloca %class.old_interval, align 8
  call void @llvm.lifetime.start.p0(i64 1, ptr nonnull %4) #25
  call void @llvm.lifetime.start.p0(i64 112, ptr nonnull %5) #25
  %6 = getelementptr inbounds nuw i8, ptr %0, i64 144
  %7 = load ptr, ptr %6, align 8, !tbaa !310
  %8 = getelementptr inbounds nuw i8, ptr %0, i64 216
  %9 = load ptr, ptr %8, align 8, !tbaa !322
  %10 = getelementptr inbounds nuw i8, ptr %9, i64 16
  %11 = load ptr, ptr %10, align 8, !tbaa !54
  br label %12

12:                                               ; preds = %12, %3
  %.08.i.i.i = phi i32 [ %1, %3 ], [ %15, %12 ]
  %13 = zext i32 %.08.i.i.i to i64
  %14 = getelementptr inbounds nuw i32, ptr %11, i64 %13
  %15 = load i32, ptr %14, align 4, !tbaa !33
  %.not.i.i.i = icmp eq i32 %15, %.08.i.i.i
  br i1 %.not.i.i.i, label %_ZN7datalog15vector_relationI12old_intervalNS_22vector_relation_helperIS1_EEEixEj.exit, label %12

_ZN7datalog15vector_relationI12old_intervalNS_22vector_relation_helperIS1_EEEixEj.exit: ; preds = %12
  %16 = load ptr, ptr %7, align 8, !tbaa !307
  %17 = getelementptr inbounds nuw %class.old_interval, ptr %16, i64 %13
  %18 = load ptr, ptr %0, align 8, !tbaa !17
  %19 = getelementptr inbounds nuw i8, ptr %18, i64 168
  %20 = load ptr, ptr %19, align 8
  call void %20(ptr dead_on_unwind nonnull writable sret(%class.old_interval) align 8 %5, ptr noundef nonnull align 8 dereferenceable(224) %0, ptr noundef nonnull align 8 dereferenceable(112) %17, ptr noundef nonnull align 8 dereferenceable(112) %2, ptr noundef nonnull align 1 dereferenceable(1) %4)
  %21 = load ptr, ptr %6, align 8, !tbaa !310
  %22 = load ptr, ptr %8, align 8, !tbaa !322
  %23 = getelementptr inbounds nuw i8, ptr %22, i64 16
  %24 = load ptr, ptr %23, align 8, !tbaa !54
  br label %25

25:                                               ; preds = %25, %_ZN7datalog15vector_relationI12old_intervalNS_22vector_relation_helperIS1_EEEixEj.exit
  %.08.i.i.i7 = phi i32 [ %1, %_ZN7datalog15vector_relationI12old_intervalNS_22vector_relation_helperIS1_EEEixEj.exit ], [ %28, %25 ]
  %26 = zext i32 %.08.i.i.i7 to i64
  %27 = getelementptr inbounds nuw i32, ptr %24, i64 %26
  %28 = load i32, ptr %27, align 4, !tbaa !33
  %.not.i.i.i8 = icmp eq i32 %28, %.08.i.i.i7
  br i1 %.not.i.i.i8, label %29, label %25

29:                                               ; preds = %25
  %30 = load ptr, ptr %21, align 8, !tbaa !307
  %31 = getelementptr inbounds nuw %class.old_interval, ptr %30, i64 %26
  %32 = call noundef nonnull align 8 dereferenceable(112) ptr @_ZN12old_intervalaSEOS_(ptr noundef nonnull align 8 dereferenceable(112) %31, ptr noundef nonnull align 8 dereferenceable(112) %5) #25
  %33 = getelementptr inbounds nuw i8, ptr %5, i64 56
  %34 = load ptr, ptr @_ZN8rational13g_mpq_managerE, align 8, !tbaa !28
  invoke void @_ZN11mpz_managerILb1EE3delEPS0_R3mpz(ptr noundef %34, ptr noundef nonnull align 8 dereferenceable(32) %33)
          to label %.noexc.i.i.i unwind label %36

.noexc.i.i.i:                                     ; preds = %29
  %35 = getelementptr inbounds nuw i8, ptr %5, i64 72
  invoke void @_ZN11mpz_managerILb1EE3delEPS0_R3mpz(ptr noundef %34, ptr noundef nonnull align 8 dereferenceable(16) %35)
          to label %_ZN11ext_numeralD2Ev.exit.i unwind label %36

36:                                               ; preds = %.noexc.i.i.i, %29
  %37 = landingpad { ptr, i32 }
          catch ptr null
  %38 = extractvalue { ptr, i32 } %37, 0
  call void @__clang_call_terminate(ptr %38) #26
  unreachable

_ZN11ext_numeralD2Ev.exit.i:                      ; preds = %.noexc.i.i.i
  %39 = getelementptr inbounds nuw i8, ptr %5, i64 16
  %40 = load ptr, ptr @_ZN8rational13g_mpq_managerE, align 8, !tbaa !28
  invoke void @_ZN11mpz_managerILb1EE3delEPS0_R3mpz(ptr noundef %40, ptr noundef nonnull align 8 dereferenceable(32) %39)
          to label %.noexc.i.i1.i unwind label %42

.noexc.i.i1.i:                                    ; preds = %_ZN11ext_numeralD2Ev.exit.i
  %41 = getelementptr inbounds nuw i8, ptr %5, i64 32
  invoke void @_ZN11mpz_managerILb1EE3delEPS0_R3mpz(ptr noundef %40, ptr noundef nonnull align 8 dereferenceable(16) %41)
          to label %_ZN12old_intervalD2Ev.exit unwind label %42

42:                                               ; preds = %.noexc.i.i1.i, %_ZN11ext_numeralD2Ev.exit.i
  %43 = landingpad { ptr, i32 }
          catch ptr null
  %44 = extractvalue { ptr, i32 } %43, 0
  call void @__clang_call_terminate(ptr %44) #26
  unreachable

_ZN12old_intervalD2Ev.exit:                       ; preds = %.noexc.i.i1.i
  call void @llvm.lifetime.end.p0(i64 112, ptr nonnull %5) #25
  %45 = load i8, ptr %4, align 1, !tbaa !75, !range !68, !noundef !69
  %46 = trunc nuw i8 %45 to i1
  br i1 %46, label %62, label %47

47:                                               ; preds = %_ZN12old_intervalD2Ev.exit
  %48 = load ptr, ptr %6, align 8, !tbaa !310
  %49 = load ptr, ptr %8, align 8, !tbaa !322
  %50 = getelementptr inbounds nuw i8, ptr %49, i64 16
  %51 = load ptr, ptr %50, align 8, !tbaa !54
  br label %52

52:                                               ; preds = %52, %47
  %.08.i.i.i10 = phi i32 [ %1, %47 ], [ %55, %52 ]
  %53 = zext i32 %.08.i.i.i10 to i64
  %54 = getelementptr inbounds nuw i32, ptr %51, i64 %53
  %55 = load i32, ptr %54, align 4, !tbaa !33
  %.not.i.i.i11 = icmp eq i32 %55, %.08.i.i.i10
  br i1 %.not.i.i.i11, label %_ZN7datalog15vector_relationI12old_intervalNS_22vector_relation_helperIS1_EEEixEj.exit12, label %52

_ZN7datalog15vector_relationI12old_intervalNS_22vector_relation_helperIS1_EEEixEj.exit12: ; preds = %52
  %56 = load ptr, ptr %48, align 8, !tbaa !307
  %57 = getelementptr inbounds nuw %class.old_interval, ptr %56, i64 %53
  %58 = load ptr, ptr %0, align 8, !tbaa !17
  %59 = getelementptr inbounds nuw i8, ptr %58, i64 208
  %60 = load ptr, ptr %59, align 8
  %61 = call noundef zeroext i1 %60(ptr noundef nonnull align 8 dereferenceable(224) %0, i32 noundef %1, ptr noundef nonnull align 8 dereferenceable(112) %57)
  br i1 %61, label %62, label %63

62:                                               ; preds = %_ZN7datalog15vector_relationI12old_intervalNS_22vector_relation_helperIS1_EEEixEj.exit12, %_ZN12old_intervalD2Ev.exit
  call void @_ZN7datalog15vector_relationI12old_intervalNS_22vector_relation_helperIS1_EEE9set_emptyEv(ptr noundef nonnull align 8 dereferenceable(224) %0)
  br label %63

63:                                               ; preds = %62, %_ZN7datalog15vector_relationI12old_intervalNS_22vector_relation_helperIS1_EEEixEj.exit12
  call void @llvm.lifetime.end.p0(i64 1, ptr nonnull %4) #25
  ret void
}